; Function Attrs: mustprogress uwtable
define void @_ZN4cvc56parser10SymManagerC2EPNS_6SolverE(ptr noundef nonnull align 8 dereferenceable(56) %this, ptr noundef %s) unnamed_addr #3 align 2 personality ptr @__gxx_personality_v0 {
entry:
  store ptr %s, ptr %this, align 8
  %call = tail call noalias noundef nonnull dereferenceable(584) ptr @_Znwm(i64 noundef 584) #25
  invoke void @_ZN4cvc56parser10SymManager14ImplementationC2Ev(ptr noundef nonnull align 8 dereferenceable(584) %call)
          to label %invoke.cont unwind label %lpad

invoke.cont:                                      ; preds = %entry
  %d_implementation = getelementptr inbounds i8, ptr %this, i64 8
  store ptr %call, ptr %d_implementation, align 8
  %d_globalDeclarations = getelementptr inbounds i8, ptr %this, i64 16
  store <4 x i8> <i8 0, i8 1, i8 0, i8 0>, ptr %d_globalDeclarations, align 8
  %d_logic = getelementptr inbounds i8, ptr %this, i64 24
  tail call void @_ZNSt7__cxx1112basic_stringIcSt11char_traitsIcESaIcEEC1Ev(ptr noundef nonnull align 8 dereferenceable(32) %d_logic) #21
  ret void

lpad:                                             ; preds = %entry
  %0 = landingpad { ptr, i32 }
          cleanup
  tail call void @_ZdlPv(ptr noundef nonnull %call) #26
  resume { ptr, i32 } %0
}